; Function Attrs: mustprogress uwtable
define void @_ZN5Yosys5RTLIL8const_orERKNS0_5ConstES3_bbi(ptr dead_on_unwind noalias writable sret(%"struct.Yosys::RTLIL::Const") align 8 %0, ptr noundef nonnull align 8 dereferenceable(40) %1, ptr noundef nonnull align 8 dereferenceable(40) %2, i1 noundef zeroext %3, i1 noundef zeroext %4, i32 noundef %5) local_unnamed_addr #3 personality ptr @__gxx_personality_v0 {
  %7 = alloca %"struct.Yosys::RTLIL::Const", align 8
  %8 = alloca %"struct.Yosys::RTLIL::Const", align 8
  call void @_ZN5Yosys5RTLIL5ConstC1ERKS1_(ptr noundef nonnull align 8 dereferenceable(40) %7, ptr noundef nonnull align 8 dereferenceable(40) %1)
  invoke void @_ZN5Yosys5RTLIL5ConstC1ERKS1_(ptr noundef nonnull align 8 dereferenceable(40) %8, ptr noundef nonnull align 8 dereferenceable(40) %2)
          to label %9 unwind label %11

9:                                                ; preds = %6
  invoke fastcc void @_ZN5YosysL13logic_wrapperEPFNS_5RTLIL5StateES1_S1_ENS0_5ConstES4_bbi(ptr dead_on_unwind noalias writable align 8 %0, ptr noundef nonnull @_ZN5YosysL8logic_orENS_5RTLIL5StateES1_, ptr noundef %7, ptr noundef %8, i1 noundef zeroext %3, i1 noundef zeroext %4, i32 noundef %5)
          to label %10 unwind label %13

10:                                               ; preds = %9
  call void @_ZN5Yosys5RTLIL5ConstD1Ev(ptr noundef nonnull align 8 dereferenceable(40) %8) #19
  call void @_ZN5Yosys5RTLIL5ConstD1Ev(ptr noundef nonnull align 8 dereferenceable(40) %7) #19
  ret void

11:                                               ; preds = %6
  %12 = landingpad { ptr, i32 }
          cleanup
  br label %15

13:                                               ; preds = %9
  %14 = landingpad { ptr, i32 }
          cleanup
  call void @_ZN5Yosys5RTLIL5ConstD1Ev(ptr noundef nonnull align 8 dereferenceable(40) %8) #19
  br label %15

15:                                               ; preds = %13, %11
  %.pn = phi { ptr, i32 } [ %14, %13 ], [ %12, %11 ]
  call void @_ZN5Yosys5RTLIL5ConstD1Ev(ptr noundef nonnull align 8 dereferenceable(40) %7) #19
  resume { ptr, i32 } %.pn
}